Certificate:
    Data:
        Version: 3 (0x2)
        Serial Number: 1 (0x1)
    Signature Algorithm: sha256WithRSAEncryption
        Issuer: C=cn, ST=shanxi, L=xian, O=ants, OU=ants, CN=iov-server/emailAddress=example@gmail.com
        Validity
            Not Before: Jan  9 08:48:25 2017 GMT
            Not After : Jan  9 08:48:25 2018 GMT
        Subject: C=cn, ST=shanxi, O=ants, OU=ants, CN=iov-server/emailAddress=example@gmail.com
        Subject Public Key Info:
            Public Key Algorithm: rsaEncryption
                Public-Key: (1024 bit)
                Modulus:
                    00:aa:83:c9:f4:95:21:32:0a:39:60:f7:4c:27:81:
                    fd:e3:bf:fb:00:1c:47:6d:5e:8a:80:01:9f:5f:08:
                    c0:56:4d:20:ab:83:48:2c:1d:84:5c:73:9e:96:30:
                    21:03:cb:df:73:83:38:e8:a5:1a:1f:3a:c9:c3:55:
                    32:60:3a:77:21:37:a2:27:91:f7:14:2a:cf:cd:7f:
                    60:2c:e0:b6:ed:3c:e0:ca:a7:f1:c5:84:18:60:40:
                    7e:45:bc:15:14:eb:a0:30:a3:e5:a3:76:a1:1d:91:
                    34:c6:b3:da:d9:a4:86:f6:6d:d6:a4:69:1b:5c:1b:
                    70:a9:98:50:40:3e:7e:cd:09
                Exponent: 65537 (0x10001)
        X509v3 extensions:
            X509v3 Basic Constraints: 
                CA:FALSE
            Netscape Comment: 
                OpenSSL Generated Certificate
            X509v3 Subject Key Identifier: 
                DC:F0:E4:88:54:76:02:30:99:46:73:1A:C8:82:0B:E9:54:FD:68:4A
            X509v3 Authority Key Identifier: 
                keyid:01:A7:85:5F:1C:B7:97:0E:93:2D:7F:AB:86:F8:DC:6C:E1:EC:E8:15

    Signature Algorithm: sha256WithRSAEncryption
         22:4a:97:9b:08:a2:2a:33:72:97:9c:29:ae:23:55:2c:53:40:
         90:e3:af:33:80:b7:db:fc:b0:cc:d1:9f:ff:3c:47:3f:4c:d3:
         8a:43:7d:bd:1d:c6:8d:ad:5f:75:6e:fe:9a:b8:8a:44:fd:dc:
         07:fc:ca:f1:3c:9e:98:4c:ed:ca:32:05:d4:2b:60:f3:cf:8f:
         a4:3a:b5:12:aa:de:59:7e:d9:2a:28:4a:4b:ae:d1:cb:8c:1c:
         8b:ec:cd:c8:6e:42:7f:de:e5:80:f9:20:c3:f2:68:7d:84:98:
         62:20:b5:f2:79:cd:c1:88:92:3a:bf:5a:d3:ec:d9:23:09:76:
         ad:75:18:dd:c1:a0:d4:b0:f9:81:70:5b:a6:db:76:24:1e:e7:
         31:1e:40:32:d0:68:ec:62:a3:e6:26:1e:f2:8e:99:99:97:aa:
         22:ba:8f:c7:b9:1f:11:96:34:14:c6:4f:22:dc:74:d1:f6:42:
         50:f5:4e:db:d2:74:63:b4:e5:cd:6c:ef:c5:0b:82:6d:14:63:
         6d:cc:fc:4c:7f:26:90:c8:6f:4f:a6:23:e4:e2:dc:ea:2e:3a:
         17:d7:17:02:5a:51:36:6f:0c:70:67:e4:de:36:0b:67:22:43:
         79:b8:a1:ba:85:a5:b5:f3:39:4c:df:03:0d:72:a4:e0:60:ad:
         ae:02:aa:e0
-----BEGIN CERTIFICATE-----
MIIDaDCCAlCgAwIBAgIBATANBgkqhkiG9w0BAQsFADCBgjELMAkGA1UEBhMCY24x
DzANBgNVBAgMBnNoYW54aTENMAsGA1UEBwwEeGlhbjENMAsGA1UECgwEYW50czEN
MAsGA1UECwwEYW50czETMBEGA1UEAwwKaW92LXNlcnZlcjEgMB4GCSqGSIb3DQEJ
ARYRZXhhbXBsZUBnbWFpbC5jb20wHhcNMTcwMTA5MDg0ODI1WhcNMTgwMTA5MDg0
ODI1WjBzMQswCQYDVQQGEwJjbjEPMA0GA1UECAwGc2hhbnhpMQ0wCwYDVQQKDARh
bnRzMQ0wCwYDVQQLDARhbnRzMRMwEQYDVQQDDAppb3Ytc2VydmVyMSAwHgYJKoZI
hvcNAQkBFhFleGFtcGxlQGdtYWlsLmNvbTCBnzANBgkqhkiG9w0BAQEFAAOBjQAw
gYkCgYEAqoPJ9JUhMgo5YPdMJ4H947/7ABxHbV6KgAGfXwjAVk0gq4NILB2EXHOe
ljAhA8vfc4M46KUaHzrJw1UyYDp3ITeiJ5H3FCrPzX9gLOC27TzgyqfxxYQYYEB+
RbwVFOugMKPlo3ahHZE0xrPa2aSG9m3WpGkbXBtwqZhQQD5+zQkCAwEAAaN7MHkw
CQYDVR0TBAIwADAsBglghkgBhvhCAQ0EHxYdT3BlblNTTCBHZW5lcmF0ZWQgQ2Vy
dGlmaWNhdGUwHQYDVR0OBBYEFNzw5IhUdgIwmUZzGsiCC+lU/WhKMB8GA1UdIwQY
MBaAFAGnhV8ct5cOky1/q4b43Gzh7OgVMA0GCSqGSIb3DQEBCwUAA4IBAQAiSpeb
CKIqM3KXnCmuI1UsU0CQ468zgLfb/LDM0Z//PEc/TNOKQ329HcaNrV91bv6auIpE
/dwH/MrxPJ6YTO3KMgXUK2Dzz4+kOrUSqt5ZftkqKEpLrtHLjByL7M3IbkJ/3uWA
+SDD8mh9hJhiILXyec3BiJI6v1rT7NkjCXatdRjdwaDUsPmBcFum23YkHucxHkAy
0GjsYqPmJh7yjpmZl6oiuo/HuR8RljQUxk8i3HTR9kJQ9U7b0nRjtOXNbO/FC4Jt
FGNtzPxMfyaQyG9PpiPk4tzqLjoX1xcCWlE2bwxwZ+TeNgtnIkN5uKG6haW18zlM
3wMNcqTgYK2uAqrg
-----END CERTIFICATE-----
