Certificate:
    Data:
        Version: 3 (0x2)
        Serial Number: 1 (0x1)
    Signature Algorithm: sha256WithRSAEncryption
        Issuer: C=CN, ST=SHANXI, L=XIAN, O=ANTS, OU=ANTS, CN=iov-CA/emailAddress=example@exa.com
        Validity
            Not Before: Feb 22 13:56:53 2017 GMT
            Not After : Feb 22 13:56:53 2018 GMT
        Subject: C=CN, ST=SHANXI, O=ANTS, OU=ANTS, CN=iov-server/emailAddress=example@exa.com
        Subject Public Key Info:
            Public Key Algorithm: rsaEncryption
                Public-Key: (1024 bit)
                Modulus:
                    00:c2:26:9a:0a:4b:de:ab:e7:f1:bb:79:a6:c5:3d:
                    2b:fd:64:69:4a:f6:b8:5e:9e:44:77:6d:9d:53:6a:
                    f0:b1:45:0c:a9:a8:3a:a2:4e:dd:86:84:21:a0:3b:
                    62:8e:d0:72:82:80:15:e8:d1:7d:71:39:61:28:f5:
                    9d:53:08:82:ac:85:3a:1f:db:3a:84:01:4b:5d:a7:
                    cb:b1:75:11:63:d6:b5:fa:ce:b4:35:44:17:6d:e9:
                    9b:04:5e:45:bb:6e:ce:fa:ab:ac:e3:24:a0:9a:25:
                    3f:0c:89:3e:cb:5c:a0:3b:3c:35:f3:2f:ce:5c:6b:
                    0d:09:61:e0:42:0f:2f:31:0b
                Exponent: 65537 (0x10001)
        X509v3 extensions:
            X509v3 Basic Constraints: 
                CA:FALSE
            Netscape Comment: 
                OpenSSL Generated Certificate
            X509v3 Subject Key Identifier: 
                4A:01:C6:69:EF:1C:8E:C5:05:4E:FB:2B:29:D2:69:CE:93:AD:A7:89
            X509v3 Authority Key Identifier: 
                keyid:F5:05:94:3F:65:EF:CF:01:C7:7C:09:7C:BF:82:B2:3A:9A:E7:D6:29

    Signature Algorithm: sha256WithRSAEncryption
         01:0e:ca:c7:88:b2:30:6d:ec:5b:83:92:3d:68:32:a4:86:c3:
         e1:a6:da:18:74:c5:f1:ef:48:2a:a1:89:39:45:53:a9:44:3c:
         a9:52:67:0a:b7:96:02:a8:50:59:56:d7:53:fe:a2:7c:f9:ef:
         58:82:a4:25:8b:1a:bc:2b:fe:62:f9:2a:4c:53:ea:2b:d4:69:
         ed:29:f2:de:5b:1d:72:76:16:57:ae:2c:4a:de:c0:94:21:5f:
         ff:30:2c:a9:03:44:6f:0a:9e:9d:5b:0b:f9:8d:5b:90:e0:bb:
         a2:8f:23:51:eb:09:a8:e5:65:50:84:96:b0:3f:8d:75:10:f5:
         89:4d:0e:d6:e2:de:5a:a8:53:69:92:15:65:62:d5:8c:34:11:
         a5:ed:c5:10:06:4d:82:c5:9d:69:7e:b8:15:cf:b4:3f:d1:26:
         6f:dc:63:bb:db:93:ac:8e:6e:7f:b5:ad:0a:2b:76:c4:92:b0:
         a6:1b:ab:89:41:56:04:e2:c2:c0:f1:c0:78:88:04:a7:37:77:
         66:5e:8a:22:de:40:5c:4c:2a:09:b6:a1:60:f3:46:5d:36:15:
         ae:15:c5:42:2d:6d:05:51:48:26:12:7d:70:77:50:aa:5a:7d:
         cb:3c:8e:d2:c4:0d:52:9b:71:48:98:4a:05:39:47:22:bd:4b:
         40:9c:ec:bd
-----BEGIN CERTIFICATE-----
MIIDXzCCAkegAwIBAgIBATANBgkqhkiG9w0BAQsFADB8MQswCQYDVQQGEwJDTjEP
MA0GA1UECAwGU0hBTlhJMQ0wCwYDVQQHDARYSUFOMQ0wCwYDVQQKDARBTlRTMQ0w
CwYDVQQLDARBTlRTMQ8wDQYDVQQDDAZpb3YtQ0ExHjAcBgkqhkiG9w0BCQEWD2V4
YW1wbGVAZXhhLmNvbTAeFw0xNzAyMjIxMzU2NTNaFw0xODAyMjIxMzU2NTNaMHEx
CzAJBgNVBAYTAkNOMQ8wDQYDVQQIDAZTSEFOWEkxDTALBgNVBAoMBEFOVFMxDTAL
BgNVBAsMBEFOVFMxEzARBgNVBAMMCmlvdi1zZXJ2ZXIxHjAcBgkqhkiG9w0BCQEW
D2V4YW1wbGVAZXhhLmNvbTCBnzANBgkqhkiG9w0BAQEFAAOBjQAwgYkCgYEAwiaa
Ckveq+fxu3mmxT0r/WRpSva4Xp5Ed22dU2rwsUUMqag6ok7dhoQhoDtijtBygoAV
6NF9cTlhKPWdUwiCrIU6H9s6hAFLXafLsXURY9a1+s60NUQXbembBF5Fu27O+qus
4ySgmiU/DIk+y1ygOzw18y/OXGsNCWHgQg8vMQsCAwEAAaN7MHkwCQYDVR0TBAIw
ADAsBglghkgBhvhCAQ0EHxYdT3BlblNTTCBHZW5lcmF0ZWQgQ2VydGlmaWNhdGUw
HQYDVR0OBBYEFEoBxmnvHI7FBU77KynSac6TraeJMB8GA1UdIwQYMBaAFPUFlD9l
788Bx3wJfL+Csjqa59YpMA0GCSqGSIb3DQEBCwUAA4IBAQABDsrHiLIwbexbg5I9
aDKkhsPhptoYdMXx70gqoYk5RVOpRDypUmcKt5YCqFBZVtdT/qJ8+e9YgqQlixq8
K/5i+SpMU+or1GntKfLeWx1ydhZXrixK3sCUIV//MCypA0RvCp6dWwv5jVuQ4Lui
jyNR6wmo5WVQhJawP411EPWJTQ7W4t5aqFNpkhVlYtWMNBGl7cUQBk2CxZ1pfrgV
z7Q/0SZv3GO725Osjm5/ta0KK3bEkrCmG6uJQVYE4sLA8cB4iASnN3dmXooi3kBc
TCoJtqFg80ZdNhWuFcVCLW0FUUgmEn1wd1CqWn3LPI7SxA1Sm3FImEoFOUcivUtA
nOy9
-----END CERTIFICATE-----
