Certificate:
    Data:
        Version: 3 (0x2)
        Serial Number: 2 (0x2)
    Signature Algorithm: sha256WithRSAEncryption
        Issuer: C=cn, ST=shanxi, L=xian, O=ants, OU=ants, CN=iov-server/emailAddress=example@gmail.com
        Validity
            Not Before: Jan 10 06:37:50 2017 GMT
            Not After : Jan 10 06:37:50 2018 GMT
        Subject: C=cn, ST=shanxi, O=ants, OU=ants, CN=iov-client/emailAddress=example@gmail.com
        Subject Public Key Info:
            Public Key Algorithm: rsaEncryption
                Public-Key: (1024 bit)
                Modulus:
                    00:aa:de:2f:e3:71:66:ac:a9:fb:55:7c:d2:23:b3:
                    bc:e2:20:c4:03:94:c6:31:da:71:cc:b9:d9:c5:7b:
                    5b:5c:5a:23:37:2b:ad:56:97:4c:d7:5c:a6:eb:58:
                    bd:d3:4f:4b:17:b3:49:e3:73:45:4d:d3:a7:f0:48:
                    f2:4e:be:1d:b9:8a:60:32:c1:21:d0:b4:4c:57:15:
                    a4:75:9c:52:e4:7f:05:85:1e:2f:c4:30:ec:66:8c:
                    10:dd:b8:bc:d8:84:45:d4:12:05:1e:f9:77:c6:7c:
                    e3:6d:40:80:47:59:6f:b1:ef:0f:ce:be:d0:3c:7f:
                    68:ac:d0:a0:12:12:8d:a6:a3
                Exponent: 65537 (0x10001)
        X509v3 extensions:
            X509v3 Basic Constraints: 
                CA:FALSE
            Netscape Comment: 
                OpenSSL Generated Certificate
            X509v3 Subject Key Identifier: 
                69:72:14:0D:50:06:4A:6E:5C:2B:8A:02:02:EB:2C:74:6B:C4:D5:96
            X509v3 Authority Key Identifier: 
                keyid:01:A7:85:5F:1C:B7:97:0E:93:2D:7F:AB:86:F8:DC:6C:E1:EC:E8:15

    Signature Algorithm: sha256WithRSAEncryption
         1d:4f:83:42:34:54:5d:aa:05:6b:15:62:ca:9a:f8:66:df:74:
         b6:5f:44:35:68:d5:29:6a:93:03:0a:9f:7b:cc:10:01:9f:96:
         0d:da:e8:33:31:35:f8:2a:07:39:fc:1c:0d:ed:0c:d9:53:21:
         0f:b3:9d:6e:d0:73:79:68:e1:22:77:59:1b:dd:94:76:35:3c:
         44:4d:f0:71:43:9d:63:c4:20:73:94:57:e3:7f:37:c8:0d:b4:
         20:fb:81:58:be:93:7f:7a:b5:82:92:1a:a3:20:f9:c1:49:19:
         c8:15:eb:93:ae:f6:ac:1b:0c:7b:be:9f:ee:f0:06:94:18:48:
         9d:13:5d:87:8f:8f:8c:8e:8a:9d:e5:eb:1c:c1:ce:06:08:48:
         77:a7:71:43:32:87:ba:df:2d:cc:34:5d:5a:9c:0e:31:77:b5:
         43:cb:44:1c:6c:bd:37:4f:86:65:0c:8e:38:5e:03:1f:9e:04:
         0d:f8:df:45:79:8e:47:7e:55:9f:1a:3e:f7:77:07:e3:4d:12:
         ad:bc:02:0d:67:99:a5:3e:e3:57:53:45:d1:15:cd:09:e7:8c:
         8c:51:f3:00:6b:93:86:a1:45:12:94:c7:b4:79:3c:12:79:60:
         09:dc:a0:93:47:38:12:a2:ef:28:3c:38:fe:ce:60:63:c3:26:
         1d:5f:b1:5a
-----BEGIN CERTIFICATE-----
MIIDaDCCAlCgAwIBAgIBAjANBgkqhkiG9w0BAQsFADCBgjELMAkGA1UEBhMCY24x
DzANBgNVBAgMBnNoYW54aTENMAsGA1UEBwwEeGlhbjENMAsGA1UECgwEYW50czEN
MAsGA1UECwwEYW50czETMBEGA1UEAwwKaW92LXNlcnZlcjEgMB4GCSqGSIb3DQEJ
ARYRZXhhbXBsZUBnbWFpbC5jb20wHhcNMTcwMTEwMDYzNzUwWhcNMTgwMTEwMDYz
NzUwWjBzMQswCQYDVQQGEwJjbjEPMA0GA1UECAwGc2hhbnhpMQ0wCwYDVQQKDARh
bnRzMQ0wCwYDVQQLDARhbnRzMRMwEQYDVQQDDAppb3YtY2xpZW50MSAwHgYJKoZI
hvcNAQkBFhFleGFtcGxlQGdtYWlsLmNvbTCBnzANBgkqhkiG9w0BAQEFAAOBjQAw
gYkCgYEAqt4v43FmrKn7VXzSI7O84iDEA5TGMdpxzLnZxXtbXFojNyutVpdM11ym
61i9009LF7NJ43NFTdOn8EjyTr4duYpgMsEh0LRMVxWkdZxS5H8FhR4vxDDsZowQ
3bi82IRF1BIFHvl3xnzjbUCAR1lvse8Pzr7QPH9orNCgEhKNpqMCAwEAAaN7MHkw
CQYDVR0TBAIwADAsBglghkgBhvhCAQ0EHxYdT3BlblNTTCBHZW5lcmF0ZWQgQ2Vy
dGlmaWNhdGUwHQYDVR0OBBYEFGlyFA1QBkpuXCuKAgLrLHRrxNWWMB8GA1UdIwQY
MBaAFAGnhV8ct5cOky1/q4b43Gzh7OgVMA0GCSqGSIb3DQEBCwUAA4IBAQAdT4NC
NFRdqgVrFWLKmvhm33S2X0Q1aNUpapMDCp97zBABn5YN2ugzMTX4Kgc5/BwN7QzZ
UyEPs51u0HN5aOEid1kb3ZR2NTxETfBxQ51jxCBzlFfjfzfIDbQg+4FYvpN/erWC
khqjIPnBSRnIFeuTrvasGwx7vp/u8AaUGEidE12Hj4+Mjoqd5escwc4GCEh3p3FD
Moe63y3MNF1anA4xd7VDy0QcbL03T4ZlDI44XgMfngQN+N9FeY5HflWfGj73dwfj
TRKtvAINZ5mlPuNXU0XRFc0J54yMUfMAa5OGoUUSlMe0eTwSeWAJ3KCTRzgSou8o
PDj+zmBjwyYdX7Fa
-----END CERTIFICATE-----
