Certificate:
    Data:
        Version: 3 (0x2)
        Serial Number: 2 (0x2)
    Signature Algorithm: sha256WithRSAEncryption
        Issuer: C=CN, ST=SHANXI, L=XIAN, O=ANTS, OU=ANTS, CN=iov-CA/emailAddress=example@exa.com
        Validity
            Not Before: Feb 22 13:57:09 2017 GMT
            Not After : Feb 22 13:57:09 2018 GMT
        Subject: C=CN, ST=SHANXI, O=ANTS, OU=ANTS, CN=iov-client/emailAddress=example@exa.com
        Subject Public Key Info:
            Public Key Algorithm: rsaEncryption
                Public-Key: (1024 bit)
                Modulus:
                    00:ba:b7:ab:f9:1c:32:62:d8:b4:44:c1:19:03:15:
                    08:4b:8e:26:66:bd:be:ef:0c:ce:0e:89:da:24:a4:
                    17:20:37:88:e0:6b:74:9d:21:ae:3e:c9:87:9a:bf:
                    a0:fa:e3:b1:53:3c:e4:91:41:8e:82:f6:b2:fe:8c:
                    3e:9d:33:65:ba:f0:a8:0a:e1:68:7c:a3:e8:82:fd:
                    2a:27:58:68:cd:57:c8:3c:83:9a:fe:12:4d:89:d5:
                    a8:52:59:c8:53:e5:6c:09:bb:0a:c0:aa:5c:93:9f:
                    0b:14:24:25:c7:e6:f2:d8:07:9f:99:3e:4f:8d:f1:
                    cd:45:35:57:59:78:16:94:1d
                Exponent: 65537 (0x10001)
        X509v3 extensions:
            X509v3 Basic Constraints: 
                CA:FALSE
            Netscape Comment: 
                OpenSSL Generated Certificate
            X509v3 Subject Key Identifier: 
                7E:9C:82:E2:93:B9:3C:06:F9:63:3B:54:5F:B3:E3:80:CB:D5:F0:0D
            X509v3 Authority Key Identifier: 
                keyid:F5:05:94:3F:65:EF:CF:01:C7:7C:09:7C:BF:82:B2:3A:9A:E7:D6:29

    Signature Algorithm: sha256WithRSAEncryption
         1f:1c:d6:82:c4:bd:57:bd:d8:2f:8b:d7:92:6c:c8:c1:26:b8:
         1b:ec:bd:3d:a0:21:df:1b:60:a1:81:ed:fb:05:17:49:1a:cc:
         b3:21:72:1a:d4:e2:56:c0:34:a5:30:cb:79:9c:42:16:5e:8b:
         11:c1:a0:1f:af:fe:f9:e6:e9:14:fc:dc:16:26:92:79:12:02:
         02:66:c7:44:34:0d:44:08:d9:86:db:fd:53:09:a9:5c:89:4c:
         01:07:87:7a:f7:64:77:a9:c8:a7:65:d8:26:e3:2c:61:2e:77:
         ae:85:4d:cd:8e:cb:a7:53:5a:7f:8b:bd:92:4c:cc:a9:a3:b1:
         77:27:4c:fd:5a:f6:1d:54:df:98:43:07:51:b3:b4:8f:e9:dc:
         2b:f2:32:c4:1c:12:53:f4:6e:22:9d:fd:c7:ab:0f:44:7a:c3:
         39:29:88:c3:c1:ea:d2:2b:0d:cf:f9:b0:d5:c1:b9:35:56:4f:
         07:29:ba:b1:da:00:1b:25:11:c6:3d:ce:cb:a3:43:d3:54:5c:
         62:88:43:ce:e2:4b:36:6c:18:ca:33:df:c5:38:29:0b:94:8a:
         74:40:5a:03:6d:62:6c:39:e2:6f:4c:c1:f9:d4:e4:fa:61:c2:
         15:af:e4:5c:d2:07:f7:10:10:e5:5d:aa:18:86:86:d4:01:18:
         f7:97:e7:d0
-----BEGIN CERTIFICATE-----
MIIDXzCCAkegAwIBAgIBAjANBgkqhkiG9w0BAQsFADB8MQswCQYDVQQGEwJDTjEP
MA0GA1UECAwGU0hBTlhJMQ0wCwYDVQQHDARYSUFOMQ0wCwYDVQQKDARBTlRTMQ0w
CwYDVQQLDARBTlRTMQ8wDQYDVQQDDAZpb3YtQ0ExHjAcBgkqhkiG9w0BCQEWD2V4
YW1wbGVAZXhhLmNvbTAeFw0xNzAyMjIxMzU3MDlaFw0xODAyMjIxMzU3MDlaMHEx
CzAJBgNVBAYTAkNOMQ8wDQYDVQQIDAZTSEFOWEkxDTALBgNVBAoMBEFOVFMxDTAL
BgNVBAsMBEFOVFMxEzARBgNVBAMMCmlvdi1jbGllbnQxHjAcBgkqhkiG9w0BCQEW
D2V4YW1wbGVAZXhhLmNvbTCBnzANBgkqhkiG9w0BAQEFAAOBjQAwgYkCgYEAurer
+RwyYti0RMEZAxUIS44mZr2+7wzODonaJKQXIDeI4Gt0nSGuPsmHmr+g+uOxUzzk
kUGOgvay/ow+nTNluvCoCuFofKPogv0qJ1hozVfIPIOa/hJNidWoUlnIU+VsCbsK
wKpck58LFCQlx+by2AefmT5PjfHNRTVXWXgWlB0CAwEAAaN7MHkwCQYDVR0TBAIw
ADAsBglghkgBhvhCAQ0EHxYdT3BlblNTTCBHZW5lcmF0ZWQgQ2VydGlmaWNhdGUw
HQYDVR0OBBYEFH6cguKTuTwG+WM7VF+z44DL1fANMB8GA1UdIwQYMBaAFPUFlD9l
788Bx3wJfL+Csjqa59YpMA0GCSqGSIb3DQEBCwUAA4IBAQAfHNaCxL1Xvdgvi9eS
bMjBJrgb7L09oCHfG2Chge37BRdJGsyzIXIa1OJWwDSlMMt5nEIWXosRwaAfr/75
5ukU/NwWJpJ5EgICZsdENA1ECNmG2/1TCalciUwBB4d692R3qcinZdgm4yxhLneu
hU3NjsunU1p/i72STMypo7F3J0z9WvYdVN+YQwdRs7SP6dwr8jLEHBJT9G4inf3H
qw9EesM5KYjDwerSKw3P+bDVwbk1Vk8HKbqx2gAbJRHGPc7Lo0PTVFxiiEPO4ks2
bBjKM9/FOCkLlIp0QFoDbWJsOeJvTMH51OT6YcIVr+Rc0gf3EBDlXaoYhobUARj3
l+fQ
-----END CERTIFICATE-----
