Certificate:
    Data:
        Version: 3 (0x2)
        Serial Number: 3 (0x3)
    Signature Algorithm: sha256WithRSAEncryption
        Issuer: C=cn, ST=shanxi, L=xian, O=ants, OU=ants, CN=iov-server/emailAddress=example@gmail.com
        Validity
            Not Before: Jan 10 07:47:45 2017 GMT
            Not After : Jan 10 07:47:45 2018 GMT
        Subject: C=cn, ST=shanxi, O=ants, OU=ants, CN=raspi/emailAddress=raspi@gmail.com
        Subject Public Key Info:
            Public Key Algorithm: rsaEncryption
                Public-Key: (1024 bit)
                Modulus:
                    00:c3:2c:91:7f:b9:86:8e:ec:e5:51:eb:de:3b:c2:
                    b9:87:51:70:cf:6f:ce:1e:60:b4:a8:56:de:cb:85:
                    5f:88:d0:8f:6a:c2:73:3e:79:69:08:b5:d4:d7:b8:
                    42:58:88:9c:6d:34:81:65:d8:2f:84:8d:64:5f:b8:
                    0e:fb:84:cf:b1:01:23:d8:9e:e6:b0:70:56:25:85:
                    71:4d:a4:4d:87:d5:c6:69:d2:d2:4d:08:b2:b7:49:
                    a5:40:62:e5:12:41:41:91:ba:82:80:4e:c7:fa:dc:
                    1a:c2:37:ec:db:93:7e:b9:34:36:15:b4:8a:2a:d5:
                    fa:f5:03:7f:73:b4:57:00:e3
                Exponent: 65537 (0x10001)
        X509v3 extensions:
            X509v3 Basic Constraints: 
                CA:FALSE
            Netscape Comment: 
                OpenSSL Generated Certificate
            X509v3 Subject Key Identifier: 
                DD:D3:13:05:98:EB:BD:20:17:79:57:31:CA:60:AF:81:6E:7A:E6:44
            X509v3 Authority Key Identifier: 
                keyid:01:A7:85:5F:1C:B7:97:0E:93:2D:7F:AB:86:F8:DC:6C:E1:EC:E8:15

    Signature Algorithm: sha256WithRSAEncryption
         4b:1d:a3:40:9f:ff:cc:23:6f:3f:88:96:bf:28:8a:d3:ce:71:
         81:c7:1b:5f:8b:6d:24:e7:5a:0f:e4:6a:16:40:b2:40:6f:82:
         03:34:d8:11:0c:1a:19:11:8b:9d:88:e8:88:97:74:06:1a:3f:
         ef:40:b4:95:32:8b:ac:c9:52:0e:73:b5:c8:91:2a:df:f1:e0:
         66:70:ca:a1:15:40:1a:d1:8d:7c:bd:81:3d:eb:31:60:29:d3:
         d6:a1:54:c1:ee:c9:07:8c:73:1b:3d:f3:88:57:ad:c4:b0:7c:
         11:27:a7:75:26:63:c5:73:f5:f6:f0:68:fb:2e:af:3c:d6:91:
         94:59:eb:3a:8a:27:f9:1a:27:f0:7d:bf:ef:98:33:5f:a2:4a:
         84:34:f6:7a:4e:ad:66:bf:d3:17:5a:32:fd:1d:bd:20:e5:eb:
         05:12:cf:3b:6c:0b:df:b1:c1:6f:5f:18:af:3f:11:09:92:29:
         78:8b:37:dc:11:4e:a9:0a:8f:fb:03:76:ec:da:e0:09:f0:87:
         2c:ce:29:fc:af:95:0e:e9:10:d4:08:7b:38:91:60:6d:11:be:
         25:5b:89:d4:db:cc:10:0c:4b:47:2a:28:7d:4f:70:13:81:5c:
         4f:b6:d5:39:dc:b1:be:fd:04:c6:a4:69:27:3d:f8:b7:6b:92:
         f0:d3:46:05
-----BEGIN CERTIFICATE-----
MIIDYTCCAkmgAwIBAgIBAzANBgkqhkiG9w0BAQsFADCBgjELMAkGA1UEBhMCY24x
DzANBgNVBAgMBnNoYW54aTENMAsGA1UEBwwEeGlhbjENMAsGA1UECgwEYW50czEN
MAsGA1UECwwEYW50czETMBEGA1UEAwwKaW92LXNlcnZlcjEgMB4GCSqGSIb3DQEJ
ARYRZXhhbXBsZUBnbWFpbC5jb20wHhcNMTcwMTEwMDc0NzQ1WhcNMTgwMTEwMDc0
NzQ1WjBsMQswCQYDVQQGEwJjbjEPMA0GA1UECAwGc2hhbnhpMQ0wCwYDVQQKDARh
bnRzMQ0wCwYDVQQLDARhbnRzMQ4wDAYDVQQDDAVyYXNwaTEeMBwGCSqGSIb3DQEJ
ARYPcmFzcGlAZ21haWwuY29tMIGfMA0GCSqGSIb3DQEBAQUAA4GNADCBiQKBgQDD
LJF/uYaO7OVR6947wrmHUXDPb84eYLSoVt7LhV+I0I9qwnM+eWkItdTXuEJYiJxt
NIFl2C+EjWRfuA77hM+xASPYnuawcFYlhXFNpE2H1cZp0tJNCLK3SaVAYuUSQUGR
uoKATsf63BrCN+zbk365NDYVtIoq1fr1A39ztFcA4wIDAQABo3sweTAJBgNVHRME
AjAAMCwGCWCGSAGG+EIBDQQfFh1PcGVuU1NMIEdlbmVyYXRlZCBDZXJ0aWZpY2F0
ZTAdBgNVHQ4EFgQU3dMTBZjrvSAXeVcxymCvgW565kQwHwYDVR0jBBgwFoAUAaeF
Xxy3lw6TLX+rhvjcbOHs6BUwDQYJKoZIhvcNAQELBQADggEBAEsdo0Cf/8wjbz+I
lr8oitPOcYHHG1+LbSTnWg/kahZAskBvggM02BEMGhkRi52I6IiXdAYaP+9AtJUy
i6zJUg5ztciRKt/x4GZwyqEVQBrRjXy9gT3rMWAp09ahVMHuyQeMcxs984hXrcSw
fBEnp3UmY8Vz9fbwaPsurzzWkZRZ6zqKJ/kaJ/B9v++YM1+iSoQ09npOrWa/0xda
Mv0dvSDl6wUSzztsC9+xwW9fGK8/EQmSKXiLN9wRTqkKj/sDduza4AnwhyzOKfyv
lQ7pENQIeziRYG0RviVbidTbzBAMS0cqKH1PcBOBXE+21Tncsb79BMakaSc9+Ldr
kvDTRgU=
-----END CERTIFICATE-----
