Certificate:
    Data:
        Version: 3 (0x2)
        Serial Number: 4 (0x4)
    Signature Algorithm: sha256WithRSAEncryption
        Issuer: C=cn, ST=shanxi, L=xian, O=ants, OU=ants, CN=iov-server/emailAddress=example@gmail.com
        Validity
            Not Before: Jan 10 12:09:08 2017 GMT
            Not After : Jan 10 12:09:08 2018 GMT
        Subject: C=cn, ST=shanxi, O=ants, OU=ants, CN=raspi/emailAddress=raspi@gmail.com
        Subject Public Key Info:
            Public Key Algorithm: rsaEncryption
                Public-Key: (1024 bit)
                Modulus:
                    00:c3:2c:91:7f:b9:86:8e:ec:e5:51:eb:de:3b:c2:
                    b9:87:51:70:cf:6f:ce:1e:60:b4:a8:56:de:cb:85:
                    5f:88:d0:8f:6a:c2:73:3e:79:69:08:b5:d4:d7:b8:
                    42:58:88:9c:6d:34:81:65:d8:2f:84:8d:64:5f:b8:
                    0e:fb:84:cf:b1:01:23:d8:9e:e6:b0:70:56:25:85:
                    71:4d:a4:4d:87:d5:c6:69:d2:d2:4d:08:b2:b7:49:
                    a5:40:62:e5:12:41:41:91:ba:82:80:4e:c7:fa:dc:
                    1a:c2:37:ec:db:93:7e:b9:34:36:15:b4:8a:2a:d5:
                    fa:f5:03:7f:73:b4:57:00:e3
                Exponent: 65537 (0x10001)
        X509v3 extensions:
            X509v3 Basic Constraints: 
                CA:FALSE
            Netscape Comment: 
                OpenSSL Generated Certificate
            X509v3 Subject Key Identifier: 
                DD:D3:13:05:98:EB:BD:20:17:79:57:31:CA:60:AF:81:6E:7A:E6:44
            X509v3 Authority Key Identifier: 
                keyid:01:A7:85:5F:1C:B7:97:0E:93:2D:7F:AB:86:F8:DC:6C:E1:EC:E8:15

    Signature Algorithm: sha256WithRSAEncryption
         12:8a:bb:a9:d3:4c:0a:84:d1:f4:67:25:b5:b8:dd:d3:f5:22:
         f6:7e:98:eb:dc:9c:13:11:c3:28:94:24:dc:7c:db:4a:d5:a9:
         c4:b9:b8:fb:e4:39:e3:e1:ab:7d:d2:71:b2:d5:66:86:15:38:
         05:fe:18:26:49:f1:ae:0e:9f:bd:d8:58:cf:57:70:99:0d:78:
         72:15:c5:54:e8:84:d3:4e:ee:7b:27:c9:6e:d2:31:98:ba:0b:
         45:a0:f5:34:68:5a:02:0c:f0:6e:f9:2c:b8:a2:91:14:f3:81:
         8b:d2:6d:1f:93:2d:ca:b8:d4:76:31:3d:6b:4b:24:61:cd:45:
         68:5a:ad:1b:14:24:02:85:24:54:d0:40:5a:f2:8c:64:ec:19:
         15:42:f0:33:25:7d:95:54:13:04:a5:61:cf:cd:e0:40:fa:97:
         22:ba:c4:82:f1:f0:43:5a:a3:9e:b5:90:c0:e7:0f:02:27:f0:
         fc:c5:fd:29:d9:4c:6f:4f:fd:0c:3a:f7:03:69:fd:a7:32:7b:
         1d:f7:8a:7d:1a:e7:83:b7:75:fe:88:2f:a1:3f:1f:8a:13:2c:
         ec:66:6a:a6:e9:59:b2:57:42:67:d2:2e:59:73:24:b4:79:6b:
         41:08:9f:c6:8b:97:a1:4b:a1:39:32:08:da:fa:78:f7:9a:c0:
         b8:0a:64:a8
-----BEGIN CERTIFICATE-----
MIIDYTCCAkmgAwIBAgIBBDANBgkqhkiG9w0BAQsFADCBgjELMAkGA1UEBhMCY24x
DzANBgNVBAgMBnNoYW54aTENMAsGA1UEBwwEeGlhbjENMAsGA1UECgwEYW50czEN
MAsGA1UECwwEYW50czETMBEGA1UEAwwKaW92LXNlcnZlcjEgMB4GCSqGSIb3DQEJ
ARYRZXhhbXBsZUBnbWFpbC5jb20wHhcNMTcwMTEwMTIwOTA4WhcNMTgwMTEwMTIw
OTA4WjBsMQswCQYDVQQGEwJjbjEPMA0GA1UECAwGc2hhbnhpMQ0wCwYDVQQKDARh
bnRzMQ0wCwYDVQQLDARhbnRzMQ4wDAYDVQQDDAVyYXNwaTEeMBwGCSqGSIb3DQEJ
ARYPcmFzcGlAZ21haWwuY29tMIGfMA0GCSqGSIb3DQEBAQUAA4GNADCBiQKBgQDD
LJF/uYaO7OVR6947wrmHUXDPb84eYLSoVt7LhV+I0I9qwnM+eWkItdTXuEJYiJxt
NIFl2C+EjWRfuA77hM+xASPYnuawcFYlhXFNpE2H1cZp0tJNCLK3SaVAYuUSQUGR
uoKATsf63BrCN+zbk365NDYVtIoq1fr1A39ztFcA4wIDAQABo3sweTAJBgNVHRME
AjAAMCwGCWCGSAGG+EIBDQQfFh1PcGVuU1NMIEdlbmVyYXRlZCBDZXJ0aWZpY2F0
ZTAdBgNVHQ4EFgQU3dMTBZjrvSAXeVcxymCvgW565kQwHwYDVR0jBBgwFoAUAaeF
Xxy3lw6TLX+rhvjcbOHs6BUwDQYJKoZIhvcNAQELBQADggEBABKKu6nTTAqE0fRn
JbW43dP1IvZ+mOvcnBMRwyiUJNx820rVqcS5uPvkOePhq33ScbLVZoYVOAX+GCZJ
8a4On73YWM9XcJkNeHIVxVTohNNO7nsnyW7SMZi6C0Wg9TRoWgIM8G75LLiikRTz
gYvSbR+TLcq41HYxPWtLJGHNRWharRsUJAKFJFTQQFryjGTsGRVC8DMlfZVUEwSl
Yc/N4ED6lyK6xILx8ENao561kMDnDwIn8PzF/SnZTG9P/Qw69wNp/acyex33in0a
54O3df6IL6E/H4oTLOxmaqbpWbJXQmfSLllzJLR5a0EIn8aLl6FLoTkyCNr6ePea
wLgKZKg=
-----END CERTIFICATE-----
